; Function Attrs: mustprogress nounwind uwtable
define hidden void @_ZN14JvmtiAgentList8add_xrunEPKcS1_b(ptr noundef %0, ptr noundef %1, i1 noundef zeroext %2) local_unnamed_addr #0 align 2 {
  %4 = tail call noundef ptr @_Z12AllocateHeapm8MEMFLAGSN17AllocFailStrategy13AllocFailEnumE(i64 noundef 88, i8 noundef zeroext 23, i32 noundef 0) #9
  tail call void @_ZN10JvmtiAgentC1EPKcS1_bb(ptr noundef nonnull align 8 dereferenceable(86) %4, ptr noundef %0, ptr noundef %1, i1 noundef zeroext %2, i1 noundef zeroext false) #9
  tail call void @_ZN10JvmtiAgent8set_xrunEv(ptr noundef nonnull align 8 dereferenceable(86) %4) #9
  br label %5

5:                                                ; preds = %5, %3
  %6 = load volatile ptr, ptr @_ZN14JvmtiAgentList5_listE, align 8
  tail call void asm sideeffect "", "~{memory},~{dirflag},~{fpsr},~{flags}"() #9, !srcloc !8
  tail call void @_ZN10JvmtiAgent8set_nextEPS_(ptr noundef nonnull align 8 dereferenceable(86) %4, ptr noundef %6) #9
  %7 = tail call noundef ptr asm sideeffect "lock cmpxchgq $1,($3)", "={ax},r,{ax},r,~{cc},~{memory},~{dirflag},~{fpsr},~{flags}"(ptr nonnull %4, ptr %6, ptr nonnull @_ZN14JvmtiAgentList5_listE) #9, !srcloc !10
  %.not.i = icmp eq ptr %7, %6
  br i1 %.not.i, label %_ZN14JvmtiAgentList3addEP10JvmtiAgent.exit, label %5, !llvm.loop !11

_ZN14JvmtiAgentList3addEP10JvmtiAgent.exit:       ; preds = %5
  ret void
}